target datalayout = "e-m:e-p270:32:32-p271:32:32-p272:64:64-i64:64-i128:128-f80:128-n8:16:32:64-S128"
target triple = "x86_64-pc-linux-gnu"

%"struct.clang::interp::BlockPointer" = type { ptr, i32 }
%"class.clang::interp::Pointer" = type <{ i64, ptr, ptr, %union.anon, i32, [4 x i8] }>
%union.anon = type { %"struct.clang::interp::BlockPointer", [8 x i8] }

; Function Attrs: mustprogress nounwind uwtable
define dso_local void @_ZN5clang6interp7PointerC2EOS1_(ptr noundef nonnull align 8 dereferenceable(52) %0, ptr noundef nonnull align 8 dereferenceable(52) %1) unnamed_addr #0 align 2 {
  %3 = alloca ptr, align 8
  %4 = alloca ptr, align 8
  store ptr %0, ptr %3, align 8
  store ptr %1, ptr %4, align 8
  %5 = load ptr, ptr %3, align 8
  %6 = getelementptr inbounds nuw %"class.clang::interp::Pointer", ptr %5, i32 0, i32 0
  %7 = load ptr, ptr %4, align 8
  %8 = getelementptr inbounds nuw %"class.clang::interp::Pointer", ptr %7, i32 0, i32 0
  %9 = load i64, ptr %8, align 8
  store i64 %9, ptr %6, align 8
  %10 = getelementptr inbounds nuw %"class.clang::interp::Pointer", ptr %5, i32 0, i32 1
  store ptr null, ptr %10, align 8
  %11 = getelementptr inbounds nuw %"class.clang::interp::Pointer", ptr %5, i32 0, i32 2
  store ptr null, ptr %11, align 8
  %12 = getelementptr inbounds nuw %"class.clang::interp::Pointer", ptr %5, i32 0, i32 3
  %13 = load ptr, ptr %4, align 8
  %14 = getelementptr inbounds nuw %"class.clang::interp::Pointer", ptr %13, i32 0, i32 3
  call void @llvm.memcpy.p0.p0.i64(ptr align 8 %12, ptr align 8 %14, i64 24, i1 false)
  %15 = getelementptr inbounds nuw %"class.clang::interp::Pointer", ptr %5, i32 0, i32 4
  %16 = load ptr, ptr %4, align 8
  %17 = getelementptr inbounds nuw %"class.clang::interp::Pointer", ptr %16, i32 0, i32 4
  %18 = load i32, ptr %17, align 8
  store i32 %18, ptr %15, align 8
  %19 = getelementptr inbounds nuw %"class.clang::interp::Pointer", ptr %5, i32 0, i32 4
  %20 = load i32, ptr %19, align 8
  %21 = icmp eq i32 %20, 0
  br i1 %21, label %22, label %32

22:                                               ; preds = %2
  %23 = getelementptr inbounds nuw %"class.clang::interp::Pointer", ptr %5, i32 0, i32 3
  %24 = getelementptr inbounds nuw %"struct.clang::interp::BlockPointer", ptr %23, i32 0, i32 0
  %25 = load ptr, ptr %24, align 8
  %26 = icmp ne ptr %25, null
  br i1 %26, label %27, label %32

27:                                               ; preds = %22
  %28 = getelementptr inbounds nuw %"class.clang::interp::Pointer", ptr %5, i32 0, i32 3
  %29 = getelementptr inbounds nuw %"struct.clang::interp::BlockPointer", ptr %28, i32 0, i32 0
  %30 = load ptr, ptr %29, align 8
  %31 = load ptr, ptr %4, align 8
  call void @_ZN5clang6interp5Block14replacePointerEPNS0_7PointerES3_(ptr noundef nonnull align 8 dereferenceable(40) %30, ptr noundef %31, ptr noundef %5)
  br label %32

32:                                               ; preds = %27, %22, %2
  ret void
}