; Function Attrs: mustprogress nounwind uwtable
define dso_local void @_ZN5clang6interp7PointerC2EOS1_(ptr noundef nonnull align 8 dereferenceable(52) %0, ptr noundef nonnull align 8 dereferenceable(52) %1) unnamed_addr #0 align 2 {
  %3 = load i64, ptr %1, align 8
  store i64 %3, ptr %0, align 8
  %4 = getelementptr inbounds nuw i8, ptr %0, i64 8
  %5 = getelementptr inbounds nuw i8, ptr %0, i64 24
  %6 = getelementptr inbounds nuw i8, ptr %1, i64 24
  tail call void @llvm.memset.p0.i64(ptr noundef nonnull align 8 dereferenceable(16) %4, i8 0, i64 16, i1 false)
  tail call void @llvm.memcpy.p0.p0.i64(ptr noundef nonnull align 8 dereferenceable(24) %5, ptr noundef nonnull align 8 dereferenceable(24) %6, i64 24, i1 false)
  %7 = getelementptr inbounds nuw i8, ptr %0, i64 48
  %8 = getelementptr inbounds nuw i8, ptr %1, i64 48
  %9 = load i32, ptr %8, align 8
  store i32 %9, ptr %7, align 8
  %10 = icmp eq i32 %9, 0
  br i1 %10, label %11, label %14

11:                                               ; preds = %2
  %12 = load ptr, ptr %5, align 8
  %.not = icmp eq ptr %12, null
  br i1 %.not, label %14, label %13

13:                                               ; preds = %11
  tail call void @_ZN5clang6interp5Block14replacePointerEPNS0_7PointerES3_(ptr noundef nonnull align 8 dereferenceable(40) %12, ptr noundef nonnull %1, ptr noundef nonnull %0) #18
  br label %14

14:                                               ; preds = %13, %11, %2
  ret void
}